; ModuleID = 'source-C-CXX/43/493.cpp'
source_filename = "source-C-CXX/43/493.cpp"
target datalayout = "e-m:e-p270:32:32-p271:32:32-p272:64:64-i64:64-f80:128-n8:16:32:64-S128"
target triple = "x86_64-pc-linux-gnu"

%"class.std::ios_base::Init" = type { i8 }
%"class.std::basic_ostream" = type { i32 (...)**, %"class.std::basic_ios" }
%"class.std::basic_ios" = type { %"class.std::ios_base", %"class.std::basic_ostream"*, i8, i8, %"class.std::basic_streambuf"*, %"class.std::ctype"*, %"class.std::num_put"*, %"class.std::num_get"* }
%"class.std::ios_base" = type { i32 (...)**, i64, i64, i32, i32, i32, %"struct.std::ios_base::_Callback_list"*, %"struct.std::ios_base::_Words", [8 x %"struct.std::ios_base::_Words"], i32, %"struct.std::ios_base::_Words"*, %"class.std::locale" }
%"struct.std::ios_base::_Callback_list" = type { %"struct.std::ios_base::_Callback_list"*, void (i32, %"class.std::ios_base"*, i32)*, i32, i32 }
%"struct.std::ios_base::_Words" = type { i8*, i64 }
%"class.std::locale" = type { %"class.std::locale::_Impl"* }
%"class.std::locale::_Impl" = type { i32, %"class.std::locale::facet"**, i64, %"class.std::locale::facet"**, i8** }
%"class.std::locale::facet" = type <{ i32 (...)**, i32, [4 x i8] }>
%"class.std::basic_streambuf" = type { i32 (...)**, i8*, i8*, i8*, i8*, i8*, i8*, %"class.std::locale" }
%"class.std::ctype" = type <{ %"class.std::locale::facet.base", [4 x i8], %struct.__locale_struct*, i8, [7 x i8], i32*, i32*, i16*, i8, [256 x i8], [256 x i8], i8, [6 x i8] }>
%"class.std::locale::facet.base" = type <{ i32 (...)**, i32 }>
%struct.__locale_struct = type { [13 x %struct.__locale_data*], i16*, i32*, i32*, [13 x i8*] }
%struct.__locale_data = type opaque
%"class.std::num_put" = type { %"class.std::locale::facet.base", [4 x i8] }
%"class.std::num_get" = type { %"class.std::locale::facet.base", [4 x i8] }
%"class.std::basic_istream" = type { i32 (...)**, i64, %"class.std::basic_ios" }

@_ZStL8__ioinit = internal global %"class.std::ios_base::Init" zeroinitializer, align 1
@__dso_handle = external hidden global i8
@_ZSt4cout = external global %"class.std::basic_ostream", align 8
@_ZSt3cin = external global %"class.std::basic_istream", align 8
@.str = private unnamed_addr constant [2 x i8] c"-\00", align 1
@llvm.global_ctors = appending global [1 x { i32, void ()*, i8* }] [{ i32, void ()*, i8* } { i32 65535, void ()* @_GLOBAL__sub_I_493.cpp, i8* null }]

declare void @_ZNSt8ios_base4InitC1Ev(%"class.std::ios_base::Init"* nonnull align 1 dereferenceable(1)) unnamed_addr #0

; Function Attrs: nounwind
declare void @_ZNSt8ios_base4InitD1Ev(%"class.std::ios_base::Init"* nonnull align 1 dereferenceable(1)) unnamed_addr #1

; Function Attrs: nofree nounwind
declare i32 @__cxa_atexit(void (i8*)*, i8*, i8*) local_unnamed_addr #2

; Function Attrs: mustprogress sspstrong uwtable
define dso_local void @_Z7reversei(i32 %0) local_unnamed_addr #3 {
  %2 = srem i32 %0, 10
  %3 = tail call nonnull align 8 dereferenceable(8) %"class.std::basic_ostream"* @_ZNSolsEi(%"class.std::basic_ostream"* nonnull align 8 dereferenceable(8) @_ZSt4cout, i32 %2)
  %4 = add i32 %0, 9
  %5 = icmp ult i32 %4, 19
  br i1 %5, label %13, label %6

6:                                                ; preds = %1, %6
  %7 = phi i32 [ %8, %6 ], [ %0, %1 ]
  %8 = sdiv i32 %7, 10
  %9 = srem i32 %8, 10
  %10 = tail call nonnull align 8 dereferenceable(8) %"class.std::basic_ostream"* @_ZNSolsEi(%"class.std::basic_ostream"* nonnull align 8 dereferenceable(8) @_ZSt4cout, i32 %9)
  %11 = add nsw i32 %8, 9
  %12 = icmp ult i32 %11, 19
  br i1 %12, label %13, label %6

13:                                               ; preds = %6, %1
  ret void
}

declare nonnull align 8 dereferenceable(8) %"class.std::basic_ostream"* @_ZNSolsEi(%"class.std::basic_ostream"* nonnull align 8 dereferenceable(8), i32) local_unnamed_addr #0

; Function Attrs: mustprogress norecurse sspstrong uwtable
define dso_local i32 @main() local_unnamed_addr #4 {
  %1 = alloca i32, align 4
  %2 = bitcast i32* %1 to i8*
  call void @llvm.lifetime.start.p0i8(i64 4, i8* nonnull %2) #8
  br label %3

3:                                                ; preds = %0, %102
  %4 = phi i32 [ 1, %0 ], [ %106, %102 ]
  %5 = call nonnull align 8 dereferenceable(16) %"class.std::basic_istream"* @_ZNSirsERi(%"class.std::basic_istream"* nonnull align 8 dereferenceable(16) @_ZSt3cin, i32* nonnull align 4 dereferenceable(4) %1)
  %6 = load i32, i32* %1, align 4, !tbaa !5
  %7 = icmp sgt i32 %6, -1
  br i1 %7, label %8, label %54

8:                                                ; preds = %3
  %9 = urem i32 %6, 10
  %10 = icmp eq i32 %9, 0
  br i1 %10, label %11, label %17

11:                                               ; preds = %8, %11
  %12 = phi i32 [ %13, %11 ], [ %6, %8 ]
  %13 = sdiv i32 %12, 10
  %14 = srem i32 %13, 10
  %15 = icmp eq i32 %14, 0
  br i1 %15, label %11, label %16, !llvm.loop !9

16:                                               ; preds = %11
  store i32 %13, i32* %1, align 4, !tbaa !5
  br label %17

17:                                               ; preds = %16, %8
  %18 = phi i32 [ %13, %16 ], [ %6, %8 ]
  %19 = phi i32 [ %14, %16 ], [ %9, %8 ]
  %20 = call nonnull align 8 dereferenceable(8) %"class.std::basic_ostream"* @_ZNSolsEi(%"class.std::basic_ostream"* nonnull align 8 dereferenceable(8) @_ZSt4cout, i32 %19)
  %21 = add i32 %18, 9
  %22 = icmp ult i32 %21, 19
  br i1 %22, label %30, label %23

23:                                               ; preds = %17, %23
  %24 = phi i32 [ %25, %23 ], [ %18, %17 ]
  %25 = sdiv i32 %24, 10
  %26 = srem i32 %25, 10
  %27 = call nonnull align 8 dereferenceable(8) %"class.std::basic_ostream"* @_ZNSolsEi(%"class.std::basic_ostream"* nonnull align 8 dereferenceable(8) @_ZSt4cout, i32 %26)
  %28 = add nsw i32 %25, 9
  %29 = icmp ult i32 %28, 19
  br i1 %29, label %30, label %23

30:                                               ; preds = %23, %17
  %31 = load i8*, i8** bitcast (%"class.std::basic_ostream"* @_ZSt4cout to i8**), align 8, !tbaa !11
  %32 = getelementptr i8, i8* %31, i64 -24
  %33 = bitcast i8* %32 to i64*
  %34 = load i64, i64* %33, align 8
  %35 = add nsw i64 %34, 240
  %36 = getelementptr inbounds i8, i8* bitcast (%"class.std::basic_ostream"* @_ZSt4cout to i8*), i64 %35
  %37 = bitcast i8* %36 to %"class.std::ctype"**
  %38 = load %"class.std::ctype"*, %"class.std::ctype"** %37, align 8, !tbaa !13
  %39 = icmp eq %"class.std::ctype"* %38, null
  br i1 %39, label %40, label %41

40:                                               ; preds = %30
  call void @_ZSt16__throw_bad_castv() #9
  unreachable

41:                                               ; preds = %30
  %42 = getelementptr inbounds %"class.std::ctype", %"class.std::ctype"* %38, i64 0, i32 8
  %43 = load i8, i8* %42, align 8, !tbaa !17
  %44 = icmp eq i8 %43, 0
  br i1 %44, label %48, label %45

45:                                               ; preds = %41
  %46 = getelementptr inbounds %"class.std::ctype", %"class.std::ctype"* %38, i64 0, i32 9, i64 10
  %47 = load i8, i8* %46, align 1, !tbaa !19
  br label %102

48:                                               ; preds = %41
  call void @_ZNKSt5ctypeIcE13_M_widen_initEv(%"class.std::ctype"* nonnull align 8 dereferenceable(570) %38)
  %49 = bitcast %"class.std::ctype"* %38 to i8 (%"class.std::ctype"*, i8)***
  %50 = load i8 (%"class.std::ctype"*, i8)**, i8 (%"class.std::ctype"*, i8)*** %49, align 8, !tbaa !11
  %51 = getelementptr inbounds i8 (%"class.std::ctype"*, i8)*, i8 (%"class.std::ctype"*, i8)** %50, i64 6
  %52 = load i8 (%"class.std::ctype"*, i8)*, i8 (%"class.std::ctype"*, i8)** %51, align 8
  %53 = call signext i8 %52(%"class.std::ctype"* nonnull align 8 dereferenceable(570) %38, i8 signext 10)
  br label %102

54:                                               ; preds = %3
  %55 = sub nsw i32 0, %6
  %56 = urem i32 %55, 10
  %57 = icmp eq i32 %56, 0
  br i1 %57, label %58, label %63

58:                                               ; preds = %54, %58
  %59 = phi i32 [ %60, %58 ], [ %55, %54 ]
  %60 = sdiv i32 %59, 10
  %61 = srem i32 %60, 10
  %62 = icmp eq i32 %61, 0
  br i1 %62, label %58, label %63, !llvm.loop !20

63:                                               ; preds = %58, %54
  %64 = phi i32 [ %55, %54 ], [ %60, %58 ]
  store i32 %64, i32* %1, align 4, !tbaa !5
  %65 = call nonnull align 8 dereferenceable(8) %"class.std::basic_ostream"* @_ZSt16__ostream_insertIcSt11char_traitsIcEERSt13basic_ostreamIT_T0_ES6_PKS3_l(%"class.std::basic_ostream"* nonnull align 8 dereferenceable(8) @_ZSt4cout, i8* nonnull getelementptr inbounds ([2 x i8], [2 x i8]* @.str, i64 0, i64 0), i64 1)
  %66 = load i32, i32* %1, align 4, !tbaa !5
  %67 = srem i32 %66, 10
  %68 = call nonnull align 8 dereferenceable(8) %"class.std::basic_ostream"* @_ZNSolsEi(%"class.std::basic_ostream"* nonnull align 8 dereferenceable(8) @_ZSt4cout, i32 %67)
  %69 = add i32 %66, 9
  %70 = icmp ult i32 %69, 19
  br i1 %70, label %78, label %71

71:                                               ; preds = %63, %71
  %72 = phi i32 [ %73, %71 ], [ %66, %63 ]
  %73 = sdiv i32 %72, 10
  %74 = srem i32 %73, 10
  %75 = call nonnull align 8 dereferenceable(8) %"class.std::basic_ostream"* @_ZNSolsEi(%"class.std::basic_ostream"* nonnull align 8 dereferenceable(8) @_ZSt4cout, i32 %74)
  %76 = add nsw i32 %73, 9
  %77 = icmp ult i32 %76, 19
  br i1 %77, label %78, label %71

78:                                               ; preds = %71, %63
  %79 = load i8*, i8** bitcast (%"class.std::basic_ostream"* @_ZSt4cout to i8**), align 8, !tbaa !11
  %80 = getelementptr i8, i8* %79, i64 -24
  %81 = bitcast i8* %80 to i64*
  %82 = load i64, i64* %81, align 8
  %83 = add nsw i64 %82, 240
  %84 = getelementptr inbounds i8, i8* bitcast (%"class.std::basic_ostream"* @_ZSt4cout to i8*), i64 %83
  %85 = bitcast i8* %84 to %"class.std::ctype"**
  %86 = load %"class.std::ctype"*, %"class.std::ctype"** %85, align 8, !tbaa !13
  %87 = icmp eq %"class.std::ctype"* %86, null
  br i1 %87, label %88, label %89

88:                                               ; preds = %78
  call void @_ZSt16__throw_bad_castv() #9
  unreachable

89:                                               ; preds = %78
  %90 = getelementptr inbounds %"class.std::ctype", %"class.std::ctype"* %86, i64 0, i32 8
  %91 = load i8, i8* %90, align 8, !tbaa !17
  %92 = icmp eq i8 %91, 0
  br i1 %92, label %96, label %93

93:                                               ; preds = %89
  %94 = getelementptr inbounds %"class.std::ctype", %"class.std::ctype"* %86, i64 0, i32 9, i64 10
  %95 = load i8, i8* %94, align 1, !tbaa !19
  br label %102

96:                                               ; preds = %89
  call void @_ZNKSt5ctypeIcE13_M_widen_initEv(%"class.std::ctype"* nonnull align 8 dereferenceable(570) %86)
  %97 = bitcast %"class.std::ctype"* %86 to i8 (%"class.std::ctype"*, i8)***
  %98 = load i8 (%"class.std::ctype"*, i8)**, i8 (%"class.std::ctype"*, i8)*** %97, align 8, !tbaa !11
  %99 = getelementptr inbounds i8 (%"class.std::ctype"*, i8)*, i8 (%"class.std::ctype"*, i8)** %98, i64 6
  %100 = load i8 (%"class.std::ctype"*, i8)*, i8 (%"class.std::ctype"*, i8)** %99, align 8
  %101 = call signext i8 %100(%"class.std::ctype"* nonnull align 8 dereferenceable(570) %86, i8 signext 10)
  br label %102

102:                                              ; preds = %96, %93, %48, %45
  %103 = phi i8 [ %47, %45 ], [ %53, %48 ], [ %95, %93 ], [ %101, %96 ]
  %104 = call nonnull align 8 dereferenceable(8) %"class.std::basic_ostream"* @_ZNSo3putEc(%"class.std::basic_ostream"* nonnull align 8 dereferenceable(8) @_ZSt4cout, i8 signext %103)
  %105 = call nonnull align 8 dereferenceable(8) %"class.std::basic_ostream"* @_ZNSo5flushEv(%"class.std::basic_ostream"* nonnull align 8 dereferenceable(8) %104)
  %106 = add nuw nsw i32 %4, 1
  %107 = icmp eq i32 %106, 7
  br i1 %107, label %108, label %3, !llvm.loop !21

108:                                              ; preds = %102
  call void @llvm.lifetime.end.p0i8(i64 4, i8* nonnull %2) #8
  ret i32 0
}

; Function Attrs: argmemonly mustprogress nofree nosync nounwind willreturn
declare void @llvm.lifetime.start.p0i8(i64 immarg, i8* nocapture) #5

declare nonnull align 8 dereferenceable(16) %"class.std::basic_istream"* @_ZNSirsERi(%"class.std::basic_istream"* nonnull align 8 dereferenceable(16), i32* nonnull align 4 dereferenceable(4)) local_unnamed_addr #0

; Function Attrs: argmemonly mustprogress nofree nosync nounwind willreturn
declare void @llvm.lifetime.end.p0i8(i64 immarg, i8* nocapture) #5

declare nonnull align 8 dereferenceable(8) %"class.std::basic_ostream"* @_ZNSo3putEc(%"class.std::basic_ostream"* nonnull align 8 dereferenceable(8), i8 signext) local_unnamed_addr #0

declare nonnull align 8 dereferenceable(8) %"class.std::basic_ostream"* @_ZNSo5flushEv(%"class.std::basic_ostream"* nonnull align 8 dereferenceable(8)) local_unnamed_addr #0

; Function Attrs: noreturn
declare void @_ZSt16__throw_bad_castv() local_unnamed_addr #6

declare void @_ZNKSt5ctypeIcE13_M_widen_initEv(%"class.std::ctype"* nonnull align 8 dereferenceable(570)) local_unnamed_addr #0

declare nonnull align 8 dereferenceable(8) %"class.std::basic_ostream"* @_ZSt16__ostream_insertIcSt11char_traitsIcEERSt13basic_ostreamIT_T0_ES6_PKS3_l(%"class.std::basic_ostream"* nonnull align 8 dereferenceable(8), i8*, i64) local_unnamed_addr #0

; Function Attrs: sspstrong uwtable
define internal void @_GLOBAL__sub_I_493.cpp() #7 section ".text.startup" {
  tail call void @_ZNSt8ios_base4InitC1Ev(%"class.std::ios_base::Init"* nonnull align 1 dereferenceable(1) @_ZStL8__ioinit)
  %1 = tail call i32 @__cxa_atexit(void (i8*)* bitcast (void (%"class.std::ios_base::Init"*)* @_ZNSt8ios_base4InitD1Ev to void (i8*)*), i8* getelementptr inbounds (%"class.std::ios_base::Init", %"class.std::ios_base::Init"* @_ZStL8__ioinit, i64 0, i32 0), i8* nonnull @__dso_handle) #8
  ret void
}


!llvm.module.flags = !{!0, !1, !2, !3}
!llvm.ident = !{!4}

!0 = !{i32 1, !"wchar_size", i32 4}
!1 = !{i32 7, !"PIC Level", i32 2}
!2 = !{i32 7, !"PIE Level", i32 2}
!3 = !{i32 7, !"uwtable", i32 1}
!4 = !{!"clang version 13.0.0"}
!5 = !{!6, !6, i64 0}
!6 = !{!"int", !7, i64 0}
!7 = !{!"omnipotent char", !8, i64 0}
!8 = !{!"Simple C++ TBAA"}
!9 = distinct !{!9, !10}
!10 = !{!"llvm.loop.mustprogress"}
!11 = !{!12, !12, i64 0}
!12 = !{!"vtable pointer", !8, i64 0}
!13 = !{!14, !15, i64 240}
!14 = !{!"_ZTSSt9basic_iosIcSt11char_traitsIcEE", !15, i64 216, !7, i64 224, !16, i64 225, !15, i64 232, !15, i64 240, !15, i64 248, !15, i64 256}
!15 = !{!"any pointer", !7, i64 0}
!16 = !{!"bool", !7, i64 0}
!17 = !{!18, !7, i64 56}
!18 = !{!"_ZTSSt5ctypeIcE", !15, i64 16, !16, i64 24, !15, i64 32, !15, i64 40, !15, i64 48, !7, i64 56, !7, i64 57, !7, i64 313, !7, i64 569}
!19 = !{!7, !7, i64 0}
!20 = distinct !{!20, !10}
!21 = distinct !{!21, !10}
